target datalayout = "e-m:e-p270:32:32-p271:32:32-p272:64:64-i64:64-i128:128-f80:128-n8:16:32:64-S128"
target triple = "x86_64-pc-linux-gnu"

; Function Attrs: nounwind sspstrong uwtable
define internal i64 @enum_each_entry(i32 noundef %0, ptr noundef %1, i64 noundef %2) #0 {
  %4 = alloca i64, align 8
  %5 = alloca i32, align 4
  %6 = alloca ptr, align 8
  %7 = alloca i64, align 8
  %8 = alloca i64, align 8
  store i32 %0, ptr %5, align 4, !tbaa !7
  store ptr %1, ptr %6, align 8, !tbaa !11
  store i64 %2, ptr %7, align 8, !tbaa !14
  br label %9

9:                                                ; preds = %3
  %10 = call i32 @rb_block_given_p()
  %11 = icmp ne i32 %10, 0
  br i1 %11, label %20, label %12

12:                                               ; preds = %9
  %13 = load i64, ptr %7, align 8, !tbaa !14
  %14 = call i64 @rb_frame_this_func()
  %15 = call i64 @rb_id2sym(i64 noundef %14)
  store i64 %15, ptr %8, align 8, !tbaa !14
  %16 = load i64, ptr %8, align 8, !tbaa !14
  %17 = load i32, ptr %5, align 4, !tbaa !7
  %18 = load ptr, ptr %6, align 8, !tbaa !11
  %19 = call i64 @rb_enumeratorize_with_size(i64 noundef %13, i64 noundef %16, i32 noundef %17, ptr noundef %18, ptr noundef @enum_size)
  store i64 %19, ptr %4, align 8
  br label %27

20:                                               ; preds = %9
  br label %21

21:                                               ; preds = %20
  %22 = load i64, ptr %7, align 8, !tbaa !14
  %23 = load i32, ptr %5, align 4, !tbaa !7
  %24 = load ptr, ptr %6, align 8, !tbaa !11
  %25 = call i64 @rb_block_call(i64 noundef %22, i64 noundef 3073, i32 noundef %23, ptr noundef %24, ptr noundef @each_val_i, i64 noundef 0)
  %26 = load i64, ptr %7, align 8, !tbaa !14
  store i64 %26, ptr %4, align 8
  br label %27

27:                                               ; preds = %21, %12
  %28 = load i64, ptr %4, align 8
  ret i64 %28
}